; Function Attrs: mustprogress sspstrong uwtable
define void @_ZN3tbb6detail2r131thread_request_serializer_proxyC2ERNS1_17thread_dispatcherEi(ptr noundef nonnull align 8 dereferenceable(64) initializes((0, 13)) %0, ptr noundef nonnull align 8 dereferenceable(152) %1, i32 noundef %2) unnamed_addr #1 align 2 personality ptr @__gxx_personality_v0 {
  store ptr getelementptr inbounds nuw inrange(-16, 24) (i8, ptr @_ZTVN3tbb6detail2r131thread_request_serializer_proxyE, i64 16), ptr %0, align 8, !tbaa !3
  %4 = getelementptr inbounds nuw i8, ptr %0, i64 8
  store i32 0, ptr %4, align 8, !tbaa !24
  %5 = getelementptr inbounds nuw i8, ptr %0, i64 12
  store i8 0, ptr %5, align 4, !tbaa !31
  %6 = getelementptr inbounds nuw i8, ptr %0, i64 16
  tail call void @_ZN3tbb6detail2r125thread_request_serializerC1ERNS1_17thread_dispatcherEi(ptr noundef nonnull align 8 dereferenceable(33) %6, ptr noundef nonnull align 8 dereferenceable(152) %1, i32 noundef %2)
  %7 = getelementptr inbounds nuw i8, ptr %0, i64 56
  store i64 0, ptr %7, align 8, !tbaa !36
  ret void
}